; Function Attrs: nounwind uwtable
define dso_local range(i32 0, 2) i32 @s_p_parse_line(ptr noundef %0, ptr noundef %1, ptr noundef writeonly captures(none) %2) #0 {
  %4 = alloca ptr, align 8
  %5 = alloca ptr, align 8
  %6 = alloca ptr, align 8
  %7 = alloca i32, align 4
  call void @llvm.lifetime.start.p0(i64 8, ptr nonnull %4) #13
  call void @llvm.lifetime.start.p0(i64 8, ptr nonnull %5) #13
  call void @llvm.lifetime.start.p0(i64 8, ptr nonnull %6) #13
  call void @llvm.lifetime.start.p0(i64 4, ptr nonnull %7) #13
  %8 = call fastcc i32 @_keyvalue_regex(ptr noundef %0, ptr noundef %1, ptr noundef %4, ptr noundef %5, ptr noundef %6, ptr noundef %7)
  %9 = icmp eq i32 %8, 0
  br i1 %9, label %.lr.ph, label %.loopexit11

.lr.ph:                                           ; preds = %3
  %.not.i = icmp eq ptr %0, null
  %10 = getelementptr inbounds nuw i8, ptr %0, i64 64
  br i1 %.not.i, label %.loopexit, label %.lr.ph.split

.lr.ph.split:                                     ; preds = %.lr.ph, %38
  %11 = load ptr, ptr %4, align 8
  %12 = load i8, ptr %11, align 1
  %.not8.i.i = icmp eq i8 %12, 0
  br i1 %.not8.i.i, label %_conf_hashtbl_index.exit.i, label %.lr.ph.i.i

.lr.ph.i.i:                                       ; preds = %.lr.ph.split
  %13 = tail call ptr @__ctype_tolower_loc() #15
  %14 = load ptr, ptr %13, align 8
  br label %15

15:                                               ; preds = %15, %.lr.ph.i.i
  %16 = phi i8 [ %12, %.lr.ph.i.i ], [ %23, %15 ]
  %.010.i.i = phi ptr [ %11, %.lr.ph.i.i ], [ %22, %15 ]
  %.069.i.i = phi i32 [ 0, %.lr.ph.i.i ], [ %21, %15 ]
  %17 = sext i8 %16 to i64
  %18 = getelementptr inbounds i32, ptr %14, i64 %17
  %19 = load i32, ptr %18, align 4
  %20 = mul i32 %.069.i.i, 31
  %21 = add i32 %19, %20
  %22 = getelementptr inbounds nuw i8, ptr %.010.i.i, i64 1
  %23 = load i8, ptr %22, align 1
  %.not.i.i = icmp eq i8 %23, 0
  br i1 %.not.i.i, label %._crit_edge.loopexit.i.i, label %15, !llvm.loop !28

._crit_edge.loopexit.i.i:                         ; preds = %15
  %24 = urem i32 %21, 173
  %25 = zext nneg i32 %24 to i64
  br label %_conf_hashtbl_index.exit.i

_conf_hashtbl_index.exit.i:                       ; preds = %._crit_edge.loopexit.i.i, %.lr.ph.split
  %.06.lcssa.i.i = phi i64 [ 0, %.lr.ph.split ], [ %25, %._crit_edge.loopexit.i.i ]
  %26 = getelementptr inbounds nuw [173 x ptr], ptr %10, i64 0, i64 %.06.lcssa.i.i
  %.012.i = load ptr, ptr %26, align 8
  %.not1113.i = icmp eq ptr %.012.i, null
  br i1 %.not1113.i, label %.loopexit, label %.lr.ph.i

.lr.ph.i:                                         ; preds = %_conf_hashtbl_index.exit.i, %30
  %.014.i = phi ptr [ %.0.i, %30 ], [ %.012.i, %_conf_hashtbl_index.exit.i ]
  %27 = load ptr, ptr %.014.i, align 8
  %28 = call i32 @xstrcasecmp(ptr noundef %27, ptr noundef nonnull %11) #13
  %29 = icmp eq i32 %28, 0
  br i1 %29, label %_conf_hashtbl_lookup.exit, label %30

30:                                               ; preds = %.lr.ph.i
  %31 = getelementptr inbounds nuw i8, ptr %.014.i, i64 48
  %.0.i = load ptr, ptr %31, align 8
  %.not11.i = icmp eq ptr %.0.i, null
  br i1 %.not11.i, label %.loopexit, label %.lr.ph.i, !llvm.loop !29

_conf_hashtbl_lookup.exit:                        ; preds = %.lr.ph.i
  %32 = load i32, ptr %7, align 4
  %33 = getelementptr inbounds nuw i8, ptr %.014.i, i64 12
  store i32 %32, ptr %33, align 4
  %34 = load ptr, ptr %5, align 8
  %35 = load ptr, ptr %6, align 8
  %36 = call fastcc i32 @_handle_keyvalue_match(ptr noundef %.014.i, ptr noundef %34, ptr noundef %35, ptr noundef %6)
  %37 = icmp eq i32 %36, -1
  br i1 %37, label %.loopexit11.sink.split, label %38

38:                                               ; preds = %_conf_hashtbl_lookup.exit
  %39 = load ptr, ptr %6, align 8
  store ptr %39, ptr %2, align 8
  call void @slurm_xfree(ptr noundef nonnull %4) #13
  call void @slurm_xfree(ptr noundef nonnull %5) #13
  %40 = call fastcc i32 @_keyvalue_regex(ptr noundef nonnull %0, ptr noundef %39, ptr noundef %4, ptr noundef %5, ptr noundef %6, ptr noundef %7)
  %41 = icmp eq i32 %40, 0
  br i1 %41, label %.lr.ph.split, label %.loopexit11, !llvm.loop !30

.loopexit:                                        ; preds = %_conf_hashtbl_index.exit.i, %30, %.lr.ph
  %42 = load ptr, ptr %4, align 8
  %43 = call i32 (ptr, ...) @error(ptr noundef nonnull @.str.2, ptr noundef %42) #13
  br label %.loopexit11.sink.split

.loopexit11.sink.split:                           ; preds = %_conf_hashtbl_lookup.exit, %.loopexit
  call void @slurm_xfree(ptr noundef nonnull %4) #13
  call void @slurm_xfree(ptr noundef nonnull %5) #13
  %44 = tail call ptr @__errno_location() #15
  store i32 22, ptr %44, align 4
  br label %.loopexit11

.loopexit11:                                      ; preds = %38, %.loopexit11.sink.split, %3
  %.0 = phi i32 [ 1, %3 ], [ 0, %.loopexit11.sink.split ], [ 1, %38 ]
  call void @llvm.lifetime.end.p0(i64 4, ptr nonnull %7) #13
  call void @llvm.lifetime.end.p0(i64 8, ptr nonnull %6) #13
  call void @llvm.lifetime.end.p0(i64 8, ptr nonnull %5) #13
  call void @llvm.lifetime.end.p0(i64 8, ptr nonnull %4) #13
  ret i32 %.0
}